; Function Attrs: nounwind uwtable
define internal fastcc ptr @H5VL__attr_create(ptr noundef %0, ptr noundef %1, ptr noundef readonly captures(none) %2, ptr noundef %3, i64 noundef %4, i64 noundef %5, i64 noundef %6, i64 noundef %7, i64 noundef %8, ptr noundef %9) unnamed_addr #0 {
  %11 = alloca %struct.H5_user_cb_state_t, align 8
  %12 = load i8, ptr @H5VL_init_g, align 1, !tbaa !33, !range !35, !noundef !36
  %13 = trunc nuw i8 %12 to i1
  %14 = load i8, ptr @H5_libterm_g, align 1, !range !35
  %15 = trunc nuw i8 %14 to i1
  %16 = xor i1 %15, true
  %17 = select i1 %13, i1 true, i1 %16
  br i1 %17, label %18, label %43, !prof !37

18:                                               ; preds = %10
  %19 = getelementptr inbounds nuw i8, ptr %2, i64 136
  %20 = load ptr, ptr %19, align 8, !tbaa !58
  %21 = icmp eq ptr %20, null
  br i1 %21, label %22, label %26

22:                                               ; preds = %18
  %23 = load i64, ptr @H5E_VOL_g, align 8, !tbaa !3
  %24 = load i64, ptr @H5E_UNSUPPORTED_g, align 8, !tbaa !3
  %25 = tail call i32 (ptr, ptr, i32, i64, i64, ptr, ...) @H5E_printf_stack(ptr noundef nonnull @.str, ptr noundef nonnull @__func__.H5VL__attr_create, i32 noundef 1048, i64 noundef %23, i64 noundef %24, ptr noundef nonnull @.str.172) #7
  br label %43

26:                                               ; preds = %18
  call void @llvm.lifetime.start.p0(i64 24, ptr nonnull %11) #7
  %27 = call i32 @H5_user_cb_prepare(ptr noundef nonnull %11) #7
  %28 = icmp slt i32 %27, 0
  br i1 %28, label %.thread, label %29

29:                                               ; preds = %26
  %30 = load ptr, ptr %19, align 8, !tbaa !58
  %31 = call ptr %30(ptr noundef %0, ptr noundef %1, ptr noundef %3, i64 noundef %4, i64 noundef %5, i64 noundef %6, i64 noundef %7, i64 noundef %8, ptr noundef %9) #7
  %32 = call i32 @H5_user_cb_restore(ptr noundef nonnull %11) #7
  %33 = icmp slt i32 %32, 0
  br i1 %33, label %.thread, label %37

.thread:                                          ; preds = %29, %26
  %H5E_CANTSET_g.sink = phi ptr [ @H5E_CANTSET_g, %26 ], [ @H5E_CANTRESTORE_g, %29 ]
  %.sink = phi i32 [ 1051, %26 ], [ 1057, %29 ]
  %34 = load i64, ptr @H5E_LIB_g, align 8, !tbaa !3
  %35 = load i64, ptr %H5E_CANTSET_g.sink, align 8, !tbaa !3
  %36 = call i32 (ptr, ptr, i32, i64, i64, ptr, ...) @H5E_printf_stack(ptr noundef nonnull @.str, ptr noundef nonnull @__func__.H5VL__attr_create, i32 noundef %.sink, i64 noundef %34, i64 noundef %35, ptr noundef nonnull @.str.2) #7
  call void @llvm.lifetime.end.p0(i64 24, ptr nonnull %11) #7
  br label %43

37:                                               ; preds = %29
  call void @llvm.lifetime.end.p0(i64 24, ptr nonnull %11) #7
  %38 = icmp eq ptr %31, null
  br i1 %38, label %39, label %43

39:                                               ; preds = %37
  %40 = load i64, ptr @H5E_VOL_g, align 8, !tbaa !3
  %41 = load i64, ptr @H5E_CANTCREATE_g, align 8, !tbaa !3
  %42 = call i32 (ptr, ptr, i32, i64, i64, ptr, ...) @H5E_printf_stack(ptr noundef nonnull @.str, ptr noundef nonnull @__func__.H5VL__attr_create, i32 noundef 1059, i64 noundef %40, i64 noundef %41, ptr noundef nonnull @.str.25) #7
  br label %43

43:                                               ; preds = %.thread, %37, %10, %39, %22
  %.019 = phi ptr [ null, %22 ], [ %31, %37 ], [ null, %39 ], [ null, %10 ], [ null, %.thread ]
  ret ptr %.019
}